--- !tapi-tbd
tbd-version:     4
targets:         [ arm64-macos ]
flags:           [ not_app_extension_safe ]
install-name:    '/usr/local/lib/libcppStringlib.dylib'
exports:
  - targets:         [ arm64-macos ]
    symbols:         [ __ZN10CStringlib11path_GetDirERKNSt3__112basic_stringIcNS0_11char_traitsIcEENS0_9allocatorIcEEEE, 
                       __ZN10CStringlib11str_ReplaceERKNSt3__112basic_stringIcNS0_11char_traitsIcEENS0_9allocatorIcEEEES8_S8_, 
                       __ZN10CStringlib12file_GetSizeERKNSt3__112basic_stringIcNS0_11char_traitsIcEENS0_9allocatorIcEEEE, 
                       __ZN10CStringlib12path_GetDirAERKNSt3__112basic_stringIcNS0_11char_traitsIcEENS0_9allocatorIcEEEE, 
                       __ZN10CStringlib12str_ReplaceAERKNSt3__112basic_stringIcNS0_11char_traitsIcEENS0_9allocatorIcEEEES8_S8_, 
                       __ZN10CStringlib12str_StrimAllERKNSt3__112basic_stringIcNS0_11char_traitsIcEENS0_9allocatorIcEEEE, 
                       __ZN10CStringlib13file_GetSizeAERKNSt3__112basic_stringIcNS0_11char_traitsIcEENS0_9allocatorIcEEEE, 
                       __ZN10CStringlib13file_OpenFileEPP7__sFILERKNSt3__112basic_stringIcNS3_11char_traitsIcEENS3_9allocatorIcEEEESB_, 
                       __ZN10CStringlib13str_StrimAllAERKNSt3__112basic_stringIcNS0_11char_traitsIcEENS0_9allocatorIcEEEE, 
                       __ZN10CStringlib13str_StrimLeftERKNSt3__112basic_stringIcNS0_11char_traitsIcEENS0_9allocatorIcEEEE, 
                       __ZN10CStringlib14file_OpenFileAEPP7__sFILERKNSt3__112basic_stringIcNS3_11char_traitsIcEENS3_9allocatorIcEEEESB_, 
                       __ZN10CStringlib14str_StrimLeftAERKNSt3__112basic_stringIcNS0_11char_traitsIcEENS0_9allocatorIcEEEE, 
                       __ZN10CStringlib14str_StrimRightERKNSt3__112basic_stringIcNS0_11char_traitsIcEENS0_9allocatorIcEEEE, 
                       __ZN10CStringlib15str_StrimRightAERKNSt3__112basic_stringIcNS0_11char_traitsIcEENS0_9allocatorIcEEEE, 
                       __ZN10CStringlib18file_GetCreateTimeERKNSt3__112basic_stringIcNS0_11char_traitsIcEENS0_9allocatorIcEEEE, 
                       __ZN10CStringlib18file_GetModifyTimeERKNSt3__112basic_stringIcNS0_11char_traitsIcEENS0_9allocatorIcEEEE, 
                       __ZN10CStringlib19file_GetCreateTimeAERKNSt3__112basic_stringIcNS0_11char_traitsIcEENS0_9allocatorIcEEEE, 
                       __ZN10CStringlib19file_GetModifyTimeAERKNSt3__112basic_stringIcNS0_11char_traitsIcEENS0_9allocatorIcEEEE, 
                       __ZN10CStringlib22path_IsDirectoryExistsERKNSt3__112basic_stringIcNS0_11char_traitsIcEENS0_9allocatorIcEEEE, 
                       __ZN10CStringlib22path_SystemSlashFormatERKNSt3__112basic_stringIcNS0_11char_traitsIcEENS0_9allocatorIcEEEE6OSType, 
                       __ZN10CStringlib23path_IsDirectoryExistsAERKNSt3__112basic_stringIcNS0_11char_traitsIcEENS0_9allocatorIcEEEE, 
                       __ZN10CStringlib23path_SystemSlashFormatAERKNSt3__112basic_stringIcNS0_11char_traitsIcEENS0_9allocatorIcEEEE6OSType, 
                       __ZN10CStringlib8fstr2strERKNSt3__112basic_stringIcNS0_11char_traitsIcEENS0_9allocatorIcEEEE, 
                       __ZN10CStringlib8str2fstrERKNSt3__112basic_stringIcNS0_11char_traitsIcEENS0_9allocatorIcEEEE ]
    weak-symbols:    [ __ZNKSt3__111basic_regexIcNS_12regex_traitsIcEEE16__match_at_startINS_9allocatorINS_9sub_matchIPKcEEEEEEbS8_S8_RNS_13match_resultsIS8_T_EENS_15regex_constants15match_flag_typeEb, 
                       __ZNKSt3__111basic_regexIcNS_12regex_traitsIcEEE21__match_at_start_ecmaINS_9allocatorINS_9sub_matchIPKcEEEEEEbS8_S8_RNS_13match_resultsIS8_T_EENS_15regex_constants15match_flag_typeEb, 
                       __ZNKSt3__111basic_regexIcNS_12regex_traitsIcEEE27__match_at_start_posix_subsINS_9allocatorINS_9sub_matchIPKcEEEEEEbS8_S8_RNS_13match_resultsIS8_T_EENS_15regex_constants15match_flag_typeEb, 
                       __ZNKSt3__111basic_regexIcNS_12regex_traitsIcEEE29__match_at_start_posix_nosubsINS_9allocatorINS_9sub_matchIPKcEEEEEEbS8_S8_RNS_13match_resultsIS8_T_EENS_15regex_constants15match_flag_typeEb, 
                       __ZNKSt3__111basic_regexIcNS_12regex_traitsIcEEE8__searchINS_9allocatorINS_9sub_matchIPKcEEEEEEbS8_S8_RNS_13match_resultsIS8_T_EENS_15regex_constants15match_flag_typeE, 
                       __ZNKSt3__112regex_traitsIcE16translate_nocaseEc, __ZNKSt3__112regex_traitsIcE18__lookup_classnameINS_11__wrap_iterIPKcEEEEjT_S7_bc, 
                       __ZNKSt3__112regex_traitsIcE19__transform_primaryINS_11__wrap_iterIPcEEEENS_12basic_stringIcNS_11char_traitsIcEENS_9allocatorIcEEEET_SC_c, 
                       __ZNKSt3__112regex_traitsIcE19__transform_primaryIPcEENS_12basic_stringIcNS_11char_traitsIcEENS_9allocatorIcEEEET_SA_c, 
                       __ZNKSt3__112regex_traitsIcE20__lookup_collatenameINS_11__wrap_iterIPKcEEEENS_12basic_stringIcNS_11char_traitsIcEENS_9allocatorIcEEEET_SD_c, 
                       __ZNKSt3__112regex_traitsIcE20__lookup_collatenameIPcEENS_12basic_stringIcNS_11char_traitsIcEENS_9allocatorIcEEEET_SA_c, 
                       __ZNKSt3__112regex_traitsIcE7isctypeEcj, __ZNKSt3__112regex_traitsIcE9transformINS_11__wrap_iterIPcEEEENS_12basic_stringIcNS_11char_traitsIcEENS_9allocatorIcEEEET_SC_, 
                       __ZNKSt3__112regex_traitsIcE9transformIPcEENS_12basic_stringIcNS_11char_traitsIcEENS_9allocatorIcEEEET_SA_, 
                       __ZNKSt3__113match_resultsINS_11__wrap_iterIPKcEENS_9allocatorINS_9sub_matchIS4_EEEEE6formatINS_20back_insert_iteratorINS_12basic_stringIcNS_11char_traitsIcEENS5_IcEEEEEEEET_SI_S3_S3_NS_15regex_constants15match_flag_typeE, 
                       __ZNKSt3__114regex_iteratorINS_11__wrap_iterIPKcEEcNS_12regex_traitsIcEEEeqERKS7_, 
                       __ZNSt3__111basic_regexIcNS_12regex_traitsIcEEE11__push_charEc, 
                       __ZNSt3__111basic_regexIcNS_12regex_traitsIcEEE11__push_loopEmmPNS_16__owns_one_stateIcEEmmb, 
                       __ZNSt3__111basic_regexIcNS_12regex_traitsIcEEE12__parse_atomINS_11__wrap_iterIPKcEEEET_S9_S9_, 
                       __ZNSt3__111basic_regexIcNS_12regex_traitsIcEEE12__parse_grepINS_11__wrap_iterIPKcEEEET_S9_S9_, 
                       __ZNSt3__111basic_regexIcNS_12regex_traitsIcEEE12__parse_termINS_11__wrap_iterIPKcEEEET_S9_S9_, 
                       __ZNSt3__111basic_regexIcNS_12regex_traitsIcEEE12__push_emptyEv, 
                       __ZNSt3__111basic_regexIcNS_12regex_traitsIcEEE13__parse_egrepINS_11__wrap_iterIPKcEEEET_S9_S9_, 
                       __ZNSt3__111basic_regexIcNS_12regex_traitsIcEEE15__parse_BACKREFINS_11__wrap_iterIPKcEEEET_S9_S9_, 
                       __ZNSt3__111basic_regexIcNS_12regex_traitsIcEEE15__push_back_refEi, 
                       __ZNSt3__111basic_regexIcNS_12regex_traitsIcEEE15__push_r_anchorEv, 
                       __ZNSt3__111basic_regexIcNS_12regex_traitsIcEEE15__test_back_refEc, 
                       __ZNSt3__111basic_regexIcNS_12regex_traitsIcEEE16__parse_ORD_CHARINS_11__wrap_iterIPKcEEEET_S9_S9_, 
                       __ZNSt3__111basic_regexIcNS_12regex_traitsIcEEE16__parse_ecma_expINS_11__wrap_iterIPKcEEEET_S9_S9_, 
                       __ZNSt3__111basic_regexIcNS_12regex_traitsIcEEE16__push_lookaheadERKS3_bj, 
                       __ZNSt3__111basic_regexIcNS_12regex_traitsIcEEE16__push_match_anyEv, 
                       __ZNSt3__111basic_regexIcNS_12regex_traitsIcEEE17__parse_DUP_COUNTINS_11__wrap_iterIPKcEEEET_S9_S9_Ri, 
                       __ZNSt3__111basic_regexIcNS_12regex_traitsIcEEE17__parse_assertionINS_11__wrap_iterIPKcEEEET_S9_S9_, 
                       __ZNSt3__111basic_regexIcNS_12regex_traitsIcEEE17__parse_simple_REINS_11__wrap_iterIPKcEEEET_S9_S9_, 
                       __ZNSt3__111basic_regexIcNS_12regex_traitsIcEEE18__parse_ERE_branchINS_11__wrap_iterIPKcEEEET_S9_S9_, 
                       __ZNSt3__111basic_regexIcNS_12regex_traitsIcEEE18__parse_awk_escapeINS_11__wrap_iterIPKcEEEET_S9_S9_PNS_12basic_stringIcNS_11char_traitsIcEENS_9allocatorIcEEEE, 
                       __ZNSt3__111basic_regexIcNS_12regex_traitsIcEEE18__parse_nondupl_REINS_11__wrap_iterIPKcEEEET_S9_S9_, 
                       __ZNSt3__111basic_regexIcNS_12regex_traitsIcEEE18__push_alternationEPNS_16__owns_one_stateIcEES6_, 
                       __ZNSt3__111basic_regexIcNS_12regex_traitsIcEEE19__parse_QUOTED_CHARINS_11__wrap_iterIPKcEEEET_S9_S9_, 
                       __ZNSt3__111basic_regexIcNS_12regex_traitsIcEEE19__parse_alternativeINS_11__wrap_iterIPKcEEEET_S9_S9_, 
                       __ZNSt3__111basic_regexIcNS_12regex_traitsIcEEE19__parse_atom_escapeINS_11__wrap_iterIPKcEEEET_S9_S9_, 
                       __ZNSt3__111basic_regexIcNS_12regex_traitsIcEEE19__parse_follow_listINS_11__wrap_iterIPKcEEEET_S9_S9_PNS_20__bracket_expressionIcS2_EE, 
                       __ZNSt3__111basic_regexIcNS_12regex_traitsIcEEE20__parse_ORD_CHAR_EREINS_11__wrap_iterIPKcEEEET_S9_S9_, 
                       __ZNSt3__111basic_regexIcNS_12regex_traitsIcEEE20__parse_class_escapeINS_11__wrap_iterIPKcEEEET_S9_S9_RNS_12basic_stringIcNS_11char_traitsIcEENS_9allocatorIcEEEEPNS_20__bracket_expressionIcS2_EE, 
                       __ZNSt3__111basic_regexIcNS_12regex_traitsIcEEE20__push_word_boundaryEb, 
                       __ZNSt3__111basic_regexIcNS_12regex_traitsIcEEE21__parse_RE_expressionINS_11__wrap_iterIPKcEEEET_S9_S9_, 
                       __ZNSt3__111basic_regexIcNS_12regex_traitsIcEEE21__parse_basic_reg_expINS_11__wrap_iterIPKcEEEET_S9_S9_, 
                       __ZNSt3__111basic_regexIcNS_12regex_traitsIcEEE21__start_matching_listEb, 
                       __ZNSt3__111basic_regexIcNS_12regex_traitsIcEEE22__parse_ERE_expressionINS_11__wrap_iterIPKcEEEET_S9_S9_, 
                       __ZNSt3__111basic_regexIcNS_12regex_traitsIcEEE22__parse_RE_dupl_symbolINS_11__wrap_iterIPKcEEEET_S9_S9_PNS_16__owns_one_stateIcEEjj, 
                       __ZNSt3__111basic_regexIcNS_12regex_traitsIcEEE22__parse_decimal_escapeINS_11__wrap_iterIPKcEEEET_S9_S9_, 
                       __ZNSt3__111basic_regexIcNS_12regex_traitsIcEEE23__parse_Back_open_braceINS_11__wrap_iterIPKcEEEET_S9_S9_, 
                       __ZNSt3__111basic_regexIcNS_12regex_traitsIcEEE23__parse_Back_open_parenINS_11__wrap_iterIPKcEEEET_S9_S9_, 
                       __ZNSt3__111basic_regexIcNS_12regex_traitsIcEEE23__parse_ERE_dupl_symbolINS_11__wrap_iterIPKcEEEET_S9_S9_PNS_16__owns_one_stateIcEEjj, 
                       __ZNSt3__111basic_regexIcNS_12regex_traitsIcEEE23__parse_QUOTED_CHAR_EREINS_11__wrap_iterIPKcEEEET_S9_S9_, 
                       __ZNSt3__111basic_regexIcNS_12regex_traitsIcEEE23__parse_character_classINS_11__wrap_iterIPKcEEEET_S9_S9_PNS_20__bracket_expressionIcS2_EE, 
                       __ZNSt3__111basic_regexIcNS_12regex_traitsIcEEE23__parse_expression_termINS_11__wrap_iterIPKcEEEET_S9_S9_PNS_20__bracket_expressionIcS2_EE, 
                       __ZNSt3__111basic_regexIcNS_12regex_traitsIcEEE24__parse_Back_close_braceINS_11__wrap_iterIPKcEEEET_S9_S9_, 
                       __ZNSt3__111basic_regexIcNS_12regex_traitsIcEEE24__parse_Back_close_parenINS_11__wrap_iterIPKcEEEET_S9_S9_, 
                       __ZNSt3__111basic_regexIcNS_12regex_traitsIcEEE24__parse_character_escapeINS_11__wrap_iterIPKcEEEET_S9_S9_PNS_12basic_stringIcNS_11char_traitsIcEENS_9allocatorIcEEEE, 
                       __ZNSt3__111basic_regexIcNS_12regex_traitsIcEEE24__parse_collating_symbolINS_11__wrap_iterIPKcEEEET_S9_S9_RNS_12basic_stringIcNS_11char_traitsIcEENS_9allocatorIcEEEE, 
                       __ZNSt3__111basic_regexIcNS_12regex_traitsIcEEE24__parse_extended_reg_expINS_11__wrap_iterIPKcEEEET_S9_S9_, 
                       __ZNSt3__111basic_regexIcNS_12regex_traitsIcEEE25__parse_equivalence_classINS_11__wrap_iterIPKcEEEET_S9_S9_PNS_20__bracket_expressionIcS2_EE, 
                       __ZNSt3__111basic_regexIcNS_12regex_traitsIcEEE25__parse_pattern_characterINS_11__wrap_iterIPKcEEEET_S9_S9_, 
                       __ZNSt3__111basic_regexIcNS_12regex_traitsIcEEE26__parse_bracket_expressionINS_11__wrap_iterIPKcEEEET_S9_S9_, 
                       __ZNSt3__111basic_regexIcNS_12regex_traitsIcEEE28__push_match_any_but_newlineEv, 
                       __ZNSt3__111basic_regexIcNS_12regex_traitsIcEEE30__parse_character_class_escapeINS_11__wrap_iterIPKcEEEET_S9_S9_, 
                       __ZNSt3__111basic_regexIcNS_12regex_traitsIcEEE31__push_end_marked_subexpressionEj, 
                       __ZNSt3__111basic_regexIcNS_12regex_traitsIcEEE32__parse_one_char_or_coll_elem_REINS_11__wrap_iterIPKcEEEET_S9_S9_, 
                       __ZNSt3__111basic_regexIcNS_12regex_traitsIcEEE33__parse_one_char_or_coll_elem_EREINS_11__wrap_iterIPKcEEEET_S9_S9_, 
                       __ZNSt3__111basic_regexIcNS_12regex_traitsIcEEE33__push_begin_marked_subexpressionEv, 
                       __ZNSt3__111basic_regexIcNS_12regex_traitsIcEEE6__initINS_11__wrap_iterIPKcEEEEvT_S9_, 
                       __ZNSt3__111basic_regexIcNS_12regex_traitsIcEEE7__parseINS_11__wrap_iterIPKcEEEET_S9_S9_, 
                       __ZNSt3__112__deque_baseINS_7__stateIcEENS_9allocatorIS2_EEE3endEv, 
                       __ZNSt3__112__deque_baseINS_7__stateIcEENS_9allocatorIS2_EEE5beginEv, 
                       __ZNSt3__112__deque_baseINS_7__stateIcEENS_9allocatorIS2_EEE5clearEv, 
                       __ZNSt3__112regex_traitsIcE20__regex_traits_valueEhi, __ZNSt3__112regex_traitsIcE6__initEv, 
                       __ZNSt3__113match_resultsIPKcNS_9allocatorINS_9sub_matchIS2_EEEEE6__initEjS2_S2_b, 
                       __ZNSt3__113regex_replaceINS_20back_insert_iteratorINS_12basic_stringIcNS_11char_traitsIcEENS_9allocatorIcEEEEEENS_11__wrap_iterIPKcEENS_12regex_traitsIcEEcEET_SF_T0_SG_RKNS_11basic_regexIT2_T1_EEPKSI_NS_15regex_constants15match_flag_typeE, 
                       __ZNSt3__114regex_iteratorINS_11__wrap_iterIPKcEEcNS_12regex_traitsIcEEEppEv, 
                       __ZNSt3__15dequeINS_7__stateIcEENS_9allocatorIS2_EEE10push_frontEOS2_, 
                       __ZNSt3__15dequeINS_7__stateIcEENS_9allocatorIS2_EEE19__add_back_capacityEv, 
                       __ZNSt3__15dequeINS_7__stateIcEENS_9allocatorIS2_EEE20__add_front_capacityEv, 
                       __ZNSt3__15dequeINS_7__stateIcEENS_9allocatorIS2_EEE8pop_backEv, 
                       __ZNSt3__15dequeINS_7__stateIcEENS_9allocatorIS2_EEE9push_backEOS2_, 
                       __ZNSt3__16ranges5__cpo9iter_moveE ]
...
